target datalayout = "e-m:e-p270:32:32-p271:32:32-p272:64:64-i64:64-i128:128-f80:128-n8:16:32:64-S128"
target triple = "x86_64-pc-linux-gnu"

%class.svector = type { %class.vector }
%class.vector = type { ptr }
%"class.sls::bvect" = type <{ %class.svector, i32, i32, i32, [4 x i8] }>
%"class.sls::bv_valuation" = type { %"class.sls::bvect", %"class.sls::bvect", %"class.sls::bvect", %"class.sls::bvect", %"class.sls::bvect", %"class.sls::bvect", i32, i32, i32, i32, %"class.sls::bvect" }

; Function Attrs: mustprogress nounwind uwtable
define linkonce_odr hidden noundef nonnull align 4 dereferenceable(4) ptr @_ZN6vectorIjLb0EjEixEj(ptr noundef nonnull align 8 dereferenceable(8) %0, i32 noundef %1) #5 comdat align 2 {
  %3 = alloca ptr, align 8
  %4 = alloca i32, align 4
  store ptr %0, ptr %3, align 8, !tbaa !149
  store i32 %1, ptr %4, align 4, !tbaa !97
  %5 = load ptr, ptr %3, align 8
  %6 = getelementptr inbounds nuw %class.vector, ptr %5, i32 0, i32 0
  %7 = load ptr, ptr %6, align 8, !tbaa !151
  %8 = load i32, ptr %4, align 4, !tbaa !97
  %9 = zext i32 %8 to i64
  %10 = getelementptr inbounds nuw i32, ptr %7, i64 %9
  ret ptr %10
}

; Function Attrs: mustprogress nounwind uwtable
define linkonce_odr hidden noundef nonnull align 4 dereferenceable(4) ptr @_ZNK6vectorIjLb0EjEixEj(ptr noundef nonnull align 8 dereferenceable(8) %0, i32 noundef %1) #5 comdat align 2 {
  %3 = alloca ptr, align 8
  %4 = alloca i32, align 4
  store ptr %0, ptr %3, align 8, !tbaa !149
  store i32 %1, ptr %4, align 4, !tbaa !97
  %5 = load ptr, ptr %3, align 8
  %6 = getelementptr inbounds nuw %class.vector, ptr %5, i32 0, i32 0
  %7 = load ptr, ptr %6, align 8, !tbaa !151
  %8 = load i32, ptr %4, align 4, !tbaa !97
  %9 = zext i32 %8 to i64
  %10 = getelementptr inbounds nuw i32, ptr %7, i64 %9
  ret ptr %10
}

; Function Attrs: mustprogress uwtable
define linkonce_odr hidden noundef nonnull align 4 dereferenceable(4) ptr @_ZN3sls5bvect12get_bit_wordEj(ptr noundef nonnull align 8 dereferenceable(20) %0, i32 noundef %1) #4 comdat align 2 {
  %3 = alloca ptr, align 8
  %4 = alloca i32, align 4
  store ptr %0, ptr %3, align 8, !tbaa !110
  store i32 %1, ptr %4, align 4, !tbaa !97
  %5 = load ptr, ptr %3, align 8
  %6 = load i32, ptr %4, align 4, !tbaa !97
  %7 = zext i32 %6 to i64
  %8 = udiv i64 %7, 32
  %9 = trunc i64 %8 to i32
  %10 = call noundef nonnull align 4 dereferenceable(4) ptr @_ZN6vectorIjLb0EjEixEj(ptr noundef nonnull align 8 dereferenceable(8) %5, i32 noundef %9)
  ret ptr %10
}

; Function Attrs: mustprogress nounwind uwtable
define linkonce_odr hidden noundef i32 @_ZN3sls5bvect12get_pos_maskEj(i32 noundef %0) #5 comdat align 2 {
  %2 = alloca i32, align 4
  store i32 %0, ptr %2, align 4, !tbaa !97
  %3 = load i32, ptr %2, align 4, !tbaa !97
  %4 = zext i32 %3 to i64
  %5 = urem i64 %4, 32
  %6 = trunc i64 %5 to i32
  %7 = shl i32 1, %6
  ret i32 %7
}

; Function Attrs: mustprogress uwtable
define linkonce_odr hidden noundef i32 @_ZNK3sls5bvect12get_bit_wordEj(ptr noundef nonnull align 8 dereferenceable(20) %0, i32 noundef %1) #4 comdat align 2 {
  %3 = alloca ptr, align 8
  %4 = alloca i32, align 4
  store ptr %0, ptr %3, align 8, !tbaa !110
  store i32 %1, ptr %4, align 4, !tbaa !97
  %5 = load ptr, ptr %3, align 8
  %6 = load i32, ptr %4, align 4, !tbaa !97
  %7 = zext i32 %6 to i64
  %8 = udiv i64 %7, 32
  %9 = trunc i64 %8 to i32
  %10 = call noundef nonnull align 4 dereferenceable(4) ptr @_ZNK6vectorIjLb0EjEixEj(ptr noundef nonnull align 8 dereferenceable(8) %5, i32 noundef %9)
  %11 = load i32, ptr %10, align 4, !tbaa !97
  ret i32 %11
}

; Function Attrs: mustprogress uwtable
define linkonce_odr hidden void @_ZN3sls5bvect3setEjb(ptr noundef nonnull align 8 dereferenceable(20) %0, i32 noundef %1, i1 noundef zeroext %2) #4 comdat align 2 {
  %4 = alloca ptr, align 8
  %5 = alloca i32, align 4
  %6 = alloca i8, align 1
  %7 = alloca i32, align 4
  store ptr %0, ptr %4, align 8, !tbaa !110
  store i32 %1, ptr %5, align 4, !tbaa !97
  %8 = zext i1 %2 to i8
  store i8 %8, ptr %6, align 1, !tbaa !133
  %9 = load ptr, ptr %4, align 8
  call void @llvm.lifetime.start.p0(i64 4, ptr %7) #3
  %10 = load i8, ptr %6, align 1, !tbaa !133, !range !134, !noundef !135
  %11 = trunc i8 %10 to i1
  %12 = zext i1 %11 to i32
  %13 = sub i32 0, %12
  store i32 %13, ptr %7, align 4, !tbaa !97
  %14 = load i32, ptr %7, align 4, !tbaa !97
  %15 = load i32, ptr %5, align 4, !tbaa !97
  %16 = call noundef nonnull align 4 dereferenceable(4) ptr @_ZN3sls5bvect12get_bit_wordEj(ptr noundef nonnull align 8 dereferenceable(20) %9, i32 noundef %15)
  %17 = load i32, ptr %16, align 4, !tbaa !97
  %18 = xor i32 %14, %17
  %19 = load i32, ptr %5, align 4, !tbaa !97
  %20 = call noundef i32 @_ZN3sls5bvect12get_pos_maskEj(i32 noundef %19)
  %21 = and i32 %18, %20
  %22 = load i32, ptr %5, align 4, !tbaa !97
  %23 = call noundef nonnull align 4 dereferenceable(4) ptr @_ZN3sls5bvect12get_bit_wordEj(ptr noundef nonnull align 8 dereferenceable(20) %9, i32 noundef %22)
  %24 = load i32, ptr %23, align 4, !tbaa !97
  %25 = xor i32 %24, %21
  store i32 %25, ptr %23, align 4, !tbaa !97
  call void @llvm.lifetime.end.p0(i64 4, ptr %7) #3
  ret void
}

; Function Attrs: mustprogress uwtable
define linkonce_odr hidden noundef zeroext i1 @_ZNK3sls5bvect3getEj(ptr noundef nonnull align 8 dereferenceable(20) %0, i32 noundef %1) #4 comdat align 2 {
  %3 = alloca ptr, align 8
  %4 = alloca i32, align 4
  store ptr %0, ptr %3, align 8, !tbaa !110
  store i32 %1, ptr %4, align 4, !tbaa !97
  %5 = load ptr, ptr %3, align 8
  %6 = load i32, ptr %4, align 4, !tbaa !97
  %7 = call noundef i32 @_ZNK3sls5bvect12get_bit_wordEj(ptr noundef nonnull align 8 dereferenceable(20) %5, i32 noundef %6)
  %8 = load i32, ptr %4, align 4, !tbaa !97
  %9 = call noundef i32 @_ZN3sls5bvect12get_pos_maskEj(i32 noundef %8)
  %10 = and i32 %7, %9
  %11 = icmp ne i32 %10, 0
  ret i1 %11
}

; Function Attrs: mustprogress uwtable
define linkonce_odr hidden noundef zeroext i1 @_ZN3sls12bv_valuation11try_set_bitEjb(ptr noundef nonnull align 8 dereferenceable(184) %0, i32 noundef %1, i1 noundef zeroext %2) #4 comdat align 2 {
  %4 = alloca i1, align 1
  %5 = alloca ptr, align 8
  %6 = alloca i32, align 4
  %7 = alloca i8, align 1
  store ptr %0, ptr %5, align 8, !tbaa !122
  store i32 %1, ptr %6, align 4, !tbaa !97
  %8 = zext i1 %2 to i8
  store i8 %8, ptr %7, align 1, !tbaa !133
  %9 = load ptr, ptr %5, align 8
  %10 = getelementptr inbounds nuw %"class.sls::bv_valuation", ptr %9, i32 0, i32 3
  %11 = load i32, ptr %6, align 4, !tbaa !97
  %12 = call noundef zeroext i1 @_ZNK3sls5bvect3getEj(ptr noundef nonnull align 8 dereferenceable(20) %10, i32 noundef %11)
  br i1 %12, label %13, label %23

13:                                               ; preds = %3
  %14 = getelementptr inbounds nuw %"class.sls::bv_valuation", ptr %9, i32 0, i32 4
  %15 = load i32, ptr %6, align 4, !tbaa !97
  %16 = call noundef zeroext i1 @_ZNK3sls5bvect3getEj(ptr noundef nonnull align 8 dereferenceable(20) %14, i32 noundef %15)
  %17 = zext i1 %16 to i32
  %18 = load i8, ptr %7, align 1, !tbaa !133, !range !134, !noundef !135
  %19 = trunc i8 %18 to i1
  %20 = zext i1 %19 to i32
  %21 = icmp ne i32 %17, %20
  br i1 %21, label %22, label %23

22:                                               ; preds = %13
  store i1 false, ptr %4, align 1
  br label %46

23:                                               ; preds = %13, %3
  %24 = getelementptr inbounds nuw %"class.sls::bv_valuation", ptr %9, i32 0, i32 0
  %25 = load i32, ptr %6, align 4, !tbaa !97
  %26 = load i8, ptr %7, align 1, !tbaa !133, !range !134, !noundef !135
  %27 = trunc i8 %26 to i1
  call void @_ZN3sls5bvect3setEjb(ptr noundef nonnull align 8 dereferenceable(20) %24, i32 noundef %25, i1 noundef zeroext %27)
  %28 = getelementptr inbounds nuw %"class.sls::bv_valuation", ptr %9, i32 0, i32 10
  %29 = load i32, ptr %6, align 4, !tbaa !97
  %30 = load i8, ptr %7, align 1, !tbaa !133, !range !134, !noundef !135
  %31 = trunc i8 %30 to i1
  call void @_ZN3sls5bvect3setEjb(ptr noundef nonnull align 8 dereferenceable(20) %28, i32 noundef %29, i1 noundef zeroext %31)
  %32 = getelementptr inbounds nuw %"class.sls::bv_valuation", ptr %9, i32 0, i32 0
  %33 = call noundef zeroext i1 @_ZNK3sls12bv_valuation8in_rangeERKNS_5bvectE(ptr noundef nonnull align 8 dereferenceable(184) %9, ptr noundef nonnull align 8 dereferenceable(20) %32)
  br i1 %33, label %34, label %35

34:                                               ; preds = %23
  store i1 true, ptr %4, align 1
  br label %46

35:                                               ; preds = %23
  %36 = getelementptr inbounds nuw %"class.sls::bv_valuation", ptr %9, i32 0, i32 0
  %37 = load i32, ptr %6, align 4, !tbaa !97
  %38 = load i8, ptr %7, align 1, !tbaa !133, !range !134, !noundef !135
  %39 = trunc i8 %38 to i1
  %40 = xor i1 %39, true
  call void @_ZN3sls5bvect3setEjb(ptr noundef nonnull align 8 dereferenceable(20) %36, i32 noundef %37, i1 noundef zeroext %40)
  %41 = getelementptr inbounds nuw %"class.sls::bv_valuation", ptr %9, i32 0, i32 10
  %42 = load i32, ptr %6, align 4, !tbaa !97
  %43 = load i8, ptr %7, align 1, !tbaa !133, !range !134, !noundef !135
  %44 = trunc i8 %43 to i1
  %45 = xor i1 %44, true
  call void @_ZN3sls5bvect3setEjb(ptr noundef nonnull align 8 dereferenceable(20) %41, i32 noundef %42, i1 noundef zeroext %45)
  store i1 false, ptr %4, align 1
  br label %46

46:                                               ; preds = %35, %34, %22
  %47 = load i1, ptr %4, align 1
  ret i1 %47
}

; Function Attrs: mustprogress uwtable
define linkonce_odr hidden noundef zeroext i1 @_ZNK3sls12bv_valuation7get_bitEj(ptr noundef nonnull align 8 dereferenceable(184) %0, i32 noundef %1) #4 comdat align 2 {
  %3 = alloca ptr, align 8
  %4 = alloca i32, align 4
  store ptr %0, ptr %3, align 8, !tbaa !122
  store i32 %1, ptr %4, align 4, !tbaa !97
  %5 = load ptr, ptr %3, align 8
  %6 = getelementptr inbounds nuw %"class.sls::bv_valuation", ptr %5, i32 0, i32 0
  %7 = load i32, ptr %4, align 4, !tbaa !97
  %8 = call noundef zeroext i1 @_ZNK3sls5bvect3getEj(ptr noundef nonnull align 8 dereferenceable(20) %6, i32 noundef %7)
  ret i1 %8
}

; Function Attrs: mustprogress uwtable
define hidden noundef zeroext i1 @_ZN3sls7bv_eval19try_repair_bit2boolERNS_12bv_valuationEj(ptr noundef nonnull align 8 dereferenceable(865) %0, ptr noundef nonnull align 8 dereferenceable(184) %1, i32 noundef %2) #4 align 2 {
  %4 = alloca ptr, align 8
  %5 = alloca ptr, align 8
  %6 = alloca i32, align 4
  store ptr %0, ptr %4, align 8, !tbaa !3
  store ptr %1, ptr %5, align 8, !tbaa !122
  store i32 %2, ptr %6, align 4, !tbaa !97
  %7 = load ptr, ptr %5, align 8, !tbaa !122
  %8 = load i32, ptr %6, align 4, !tbaa !97
  %9 = load ptr, ptr %5, align 8, !tbaa !122
  %10 = load i32, ptr %6, align 4, !tbaa !97
  %11 = call noundef zeroext i1 @_ZNK3sls12bv_valuation7get_bitEj(ptr noundef nonnull align 8 dereferenceable(184) %9, i32 noundef %10)
  %12 = xor i1 %11, true
  %13 = call noundef zeroext i1 @_ZN3sls12bv_valuation11try_set_bitEjb(ptr noundef nonnull align 8 dereferenceable(184) %7, i32 noundef %8, i1 noundef zeroext %12)
  ret i1 %13
}