; Function Attrs: mustprogress uwtable
define hidden noundef zeroext i1 @_ZN3sls7bv_eval19try_repair_bit2boolERNS_12bv_valuationEj(ptr nonnull readnone align 8 captures(none) %0, ptr noundef nonnull align 8 dereferenceable(184) %1, i32 noundef %2) local_unnamed_addr #3 align 2 {
  %4 = lshr i32 %2, 5
  %5 = load ptr, ptr %1, align 8, !tbaa !97
  %6 = zext nneg i32 %4 to i64
  %7 = getelementptr inbounds nuw i32, ptr %5, i64 %6
  %8 = load i32, ptr %7, align 4, !tbaa !102
  %9 = and i32 %2, 31
  %10 = shl nuw i32 1, %9
  %11 = and i32 %8, %10
  %12 = icmp ne i32 %11, 0
  %13 = xor i1 %12, true
  %14 = getelementptr inbounds nuw i8, ptr %1, i64 72
  %15 = load ptr, ptr %14, align 8, !tbaa !97
  %16 = getelementptr inbounds nuw i32, ptr %15, i64 %6
  %17 = load i32, ptr %16, align 4, !tbaa !102
  %18 = and i32 %17, %10
  %.not.i = icmp eq i32 %18, 0
  br i1 %.not.i, label %27, label %19

19:                                               ; preds = %3
  %20 = getelementptr inbounds nuw i8, ptr %1, i64 96
  %21 = load ptr, ptr %20, align 8, !tbaa !97
  %22 = getelementptr inbounds nuw i32, ptr %21, i64 %6
  %23 = load i32, ptr %22, align 4, !tbaa !102
  %24 = and i32 %23, %10
  %25 = icmp ne i32 %24, 0
  %26 = xor i1 %25, %13
  br i1 %26, label %_ZN3sls12bv_valuation11try_set_bitEjb.exit, label %27

27:                                               ; preds = %19, %3
  %.neg.i.i = sext i1 %13 to i32
  %28 = xor i32 %8, %.neg.i.i
  %29 = and i32 %28, %10
  %30 = xor i32 %29, %8
  store i32 %30, ptr %7, align 4, !tbaa !102
  %31 = getelementptr inbounds nuw i8, ptr %1, i64 160
  %32 = load ptr, ptr %31, align 8, !tbaa !97
  %33 = getelementptr inbounds nuw i32, ptr %32, i64 %6
  %34 = load i32, ptr %33, align 4, !tbaa !102
  %35 = xor i32 %34, %.neg.i.i
  %36 = and i32 %35, %10
  %37 = xor i32 %36, %34
  store i32 %37, ptr %33, align 4, !tbaa !102
  %38 = tail call noundef zeroext i1 @_ZNK3sls12bv_valuation8in_rangeERKNS_5bvectE(ptr noundef nonnull align 8 dereferenceable(184) %1, ptr noundef nonnull align 8 dereferenceable(184) %1)
  br i1 %38, label %_ZN3sls12bv_valuation11try_set_bitEjb.exit, label %39

39:                                               ; preds = %27
  %.neg.i13.i = sext i1 %12 to i32
  %40 = load ptr, ptr %1, align 8, !tbaa !97
  %41 = getelementptr inbounds nuw i32, ptr %40, i64 %6
  %42 = load i32, ptr %41, align 4, !tbaa !102
  %43 = xor i32 %42, %.neg.i13.i
  %44 = and i32 %43, %10
  %45 = xor i32 %44, %42
  store i32 %45, ptr %41, align 4, !tbaa !102
  %46 = load ptr, ptr %31, align 8, !tbaa !97
  %47 = getelementptr inbounds nuw i32, ptr %46, i64 %6
  %48 = load i32, ptr %47, align 4, !tbaa !102
  %49 = xor i32 %48, %.neg.i13.i
  %50 = and i32 %49, %10
  %51 = xor i32 %50, %48
  store i32 %51, ptr %47, align 4, !tbaa !102
  br label %_ZN3sls12bv_valuation11try_set_bitEjb.exit

_ZN3sls12bv_valuation11try_set_bitEjb.exit:       ; preds = %19, %27, %39
  %.0.i = phi i1 [ false, %39 ], [ false, %19 ], [ true, %27 ]
  ret i1 %.0.i
}